; Function Attrs: nounwind uwtable
define internal fastcc noundef ptr @Gia_ManGetCex(ptr noundef readonly captures(none) %0, ptr noundef readonly captures(none) %1, ptr noundef readonly captures(none) %2, ptr noundef returned initializes((4, 8)) %3) unnamed_addr #0 {
  %5 = getelementptr inbounds nuw i8, ptr %3, i64 4
  store i32 0, ptr %5, align 4, !tbaa !3
  %6 = getelementptr i8, ptr %0, i64 32
  %7 = getelementptr i8, ptr %0, i64 16
  %8 = getelementptr i8, ptr %0, i64 64
  %.val2645 = load i32, ptr %7, align 8, !tbaa !73
  %.val2746 = load ptr, ptr %8, align 8, !tbaa !74
  %9 = getelementptr i8, ptr %.val2746, i64 4
  %.val27.val47 = load i32, ptr %9, align 4, !tbaa !3
  %10 = icmp sgt i32 %.val27.val47, %.val2645
  br i1 %10, label %.lr.ph, label %.critedge

.lr.ph:                                           ; preds = %4
  %11 = getelementptr i8, ptr %1, i64 4
  %.phi.trans.insert.i = getelementptr inbounds nuw i8, ptr %3, i64 8
  %12 = getelementptr i8, ptr %1, i64 8
  %13 = getelementptr i8, ptr %2, i64 328
  br label %14

14:                                               ; preds = %.lr.ph, %Vec_IntPush.exit
  %indvars.iv = phi i64 [ 0, %.lr.ph ], [ %indvars.iv.next, %Vec_IntPush.exit ]
  %.val2749 = phi ptr [ %.val2746, %.lr.ph ], [ %.val27, %Vec_IntPush.exit ]
  %.val28 = load ptr, ptr %6, align 8, !tbaa !71
  %.not = icmp eq ptr %.val28, null
  br i1 %.not, label %.critedge, label %15

15:                                               ; preds = %14
  %16 = getelementptr i8, ptr %.val2749, i64 8
  %.val29.val = load ptr, ptr %16, align 8, !tbaa !34
  %17 = getelementptr inbounds nuw i32, ptr %.val29.val, i64 %indvars.iv
  %18 = load i32, ptr %17, align 4, !tbaa !44
  %.val = load i32, ptr %11, align 4, !tbaa !3
  %.not22 = icmp slt i32 %18, %.val
  br i1 %.not22, label %43, label %19

19:                                               ; preds = %15
  %20 = load i32, ptr %5, align 4, !tbaa !3
  %21 = load i32, ptr %3, align 8, !tbaa !33
  %22 = icmp eq i32 %20, %21
  br i1 %22, label %23, label %.Vec_IntGrow.exit10_crit_edge.i

.Vec_IntGrow.exit10_crit_edge.i:                  ; preds = %19
  %.pre.i = load ptr, ptr %.phi.trans.insert.i, align 8, !tbaa !34
  br label %Vec_IntPush.exit

23:                                               ; preds = %19
  %24 = icmp slt i32 %20, 16
  br i1 %24, label %25, label %32

25:                                               ; preds = %23
  %26 = load ptr, ptr %.phi.trans.insert.i, align 8, !tbaa !34
  %.not9.i.i = icmp eq ptr %26, null
  br i1 %.not9.i.i, label %29, label %27

27:                                               ; preds = %25
  %28 = tail call dereferenceable_or_null(64) ptr @realloc(ptr noundef nonnull %26, i64 noundef 64) #26
  br label %Vec_IntGrow.exit.i

29:                                               ; preds = %25
  %30 = tail call noalias dereferenceable_or_null(64) ptr @malloc(i64 noundef 64) #25
  br label %Vec_IntGrow.exit.i

Vec_IntGrow.exit.i:                               ; preds = %29, %27
  %31 = phi ptr [ %28, %27 ], [ %30, %29 ]
  store ptr %31, ptr %.phi.trans.insert.i, align 8, !tbaa !34
  store i32 16, ptr %3, align 8, !tbaa !33
  br label %Vec_IntPush.exit

32:                                               ; preds = %23
  %33 = shl nuw nsw i32 %20, 1
  %34 = load ptr, ptr %.phi.trans.insert.i, align 8, !tbaa !34
  %.not9.i9.i = icmp eq ptr %34, null
  %35 = zext nneg i32 %33 to i64
  %36 = shl nuw nsw i64 %35, 2
  br i1 %.not9.i9.i, label %39, label %37

37:                                               ; preds = %32
  %38 = tail call ptr @realloc(ptr noundef nonnull %34, i64 noundef %36) #26
  br label %41

39:                                               ; preds = %32
  %40 = tail call noalias ptr @malloc(i64 noundef %36) #25
  br label %41

41:                                               ; preds = %39, %37
  %42 = phi ptr [ %38, %37 ], [ %40, %39 ]
  store ptr %42, ptr %.phi.trans.insert.i, align 8, !tbaa !34
  store i32 %33, ptr %3, align 8, !tbaa !33
  br label %Vec_IntPush.exit

43:                                               ; preds = %15
  %.val23 = load ptr, ptr %12, align 8, !tbaa !34
  %44 = sext i32 %18 to i64
  %45 = getelementptr inbounds i32, ptr %.val23, i64 %44
  %46 = load i32, ptr %45, align 4, !tbaa !44
  %47 = icmp eq i32 %46, 0
  br i1 %47, label %48, label %72

48:                                               ; preds = %43
  %49 = load i32, ptr %5, align 4, !tbaa !3
  %50 = load i32, ptr %3, align 8, !tbaa !33
  %51 = icmp eq i32 %49, %50
  br i1 %51, label %52, label %.Vec_IntGrow.exit10_crit_edge.i31

.Vec_IntGrow.exit10_crit_edge.i31:                ; preds = %48
  %.pre.i33 = load ptr, ptr %.phi.trans.insert.i, align 8, !tbaa !34
  br label %Vec_IntPush.exit

52:                                               ; preds = %48
  %53 = icmp slt i32 %49, 16
  br i1 %53, label %54, label %61

54:                                               ; preds = %52
  %55 = load ptr, ptr %.phi.trans.insert.i, align 8, !tbaa !34
  %.not9.i.i35 = icmp eq ptr %55, null
  br i1 %.not9.i.i35, label %58, label %56

56:                                               ; preds = %54
  %57 = tail call dereferenceable_or_null(64) ptr @realloc(ptr noundef nonnull %55, i64 noundef 64) #26
  br label %Vec_IntGrow.exit.i36

58:                                               ; preds = %54
  %59 = tail call noalias dereferenceable_or_null(64) ptr @malloc(i64 noundef 64) #25
  br label %Vec_IntGrow.exit.i36

Vec_IntGrow.exit.i36:                             ; preds = %58, %56
  %60 = phi ptr [ %57, %56 ], [ %59, %58 ]
  store ptr %60, ptr %.phi.trans.insert.i, align 8, !tbaa !34
  store i32 16, ptr %3, align 8, !tbaa !33
  br label %Vec_IntPush.exit

61:                                               ; preds = %52
  %62 = shl nuw nsw i32 %49, 1
  %63 = load ptr, ptr %.phi.trans.insert.i, align 8, !tbaa !34
  %.not9.i9.i34 = icmp eq ptr %63, null
  %64 = zext nneg i32 %62 to i64
  %65 = shl nuw nsw i64 %64, 2
  br i1 %.not9.i9.i34, label %68, label %66

66:                                               ; preds = %61
  %67 = tail call ptr @realloc(ptr noundef nonnull %63, i64 noundef %65) #26
  br label %70

68:                                               ; preds = %61
  %69 = tail call noalias ptr @malloc(i64 noundef %65) #25
  br label %70

70:                                               ; preds = %68, %66
  %71 = phi ptr [ %67, %66 ], [ %69, %68 ]
  store ptr %71, ptr %.phi.trans.insert.i, align 8, !tbaa !34
  store i32 %62, ptr %3, align 8, !tbaa !33
  br label %Vec_IntPush.exit

72:                                               ; preds = %43
  %73 = ashr i32 %46, 1
  %.val30 = load ptr, ptr %13, align 8, !tbaa !122
  %74 = sext i32 %73 to i64
  %75 = getelementptr inbounds i32, ptr %.val30, i64 %74
  %76 = load i32, ptr %75, align 4, !tbaa !44
  %77 = icmp eq i32 %76, 1
  %78 = zext i1 %77 to i32
  %79 = and i32 %46, 1
  %80 = xor i32 %79, %78
  %81 = load i32, ptr %5, align 4, !tbaa !3
  %82 = load i32, ptr %3, align 8, !tbaa !33
  %83 = icmp eq i32 %81, %82
  br i1 %83, label %84, label %.Vec_IntGrow.exit10_crit_edge.i38

.Vec_IntGrow.exit10_crit_edge.i38:                ; preds = %72
  %.pre.i40 = load ptr, ptr %.phi.trans.insert.i, align 8, !tbaa !34
  br label %Vec_IntPush.exit

84:                                               ; preds = %72
  %85 = icmp slt i32 %81, 16
  br i1 %85, label %86, label %93

86:                                               ; preds = %84
  %87 = load ptr, ptr %.phi.trans.insert.i, align 8, !tbaa !34
  %.not9.i.i42 = icmp eq ptr %87, null
  br i1 %.not9.i.i42, label %90, label %88

88:                                               ; preds = %86
  %89 = tail call dereferenceable_or_null(64) ptr @realloc(ptr noundef nonnull %87, i64 noundef 64) #26
  br label %Vec_IntGrow.exit.i43

90:                                               ; preds = %86
  %91 = tail call noalias dereferenceable_or_null(64) ptr @malloc(i64 noundef 64) #25
  br label %Vec_IntGrow.exit.i43

Vec_IntGrow.exit.i43:                             ; preds = %90, %88
  %92 = phi ptr [ %89, %88 ], [ %91, %90 ]
  store ptr %92, ptr %.phi.trans.insert.i, align 8, !tbaa !34
  store i32 16, ptr %3, align 8, !tbaa !33
  br label %Vec_IntPush.exit

93:                                               ; preds = %84
  %94 = shl nuw nsw i32 %81, 1
  %95 = load ptr, ptr %.phi.trans.insert.i, align 8, !tbaa !34
  %.not9.i9.i41 = icmp eq ptr %95, null
  %96 = zext nneg i32 %94 to i64
  %97 = shl nuw nsw i64 %96, 2
  br i1 %.not9.i9.i41, label %100, label %98

98:                                               ; preds = %93
  %99 = tail call ptr @realloc(ptr noundef nonnull %95, i64 noundef %97) #26
  br label %102

100:                                              ; preds = %93
  %101 = tail call noalias ptr @malloc(i64 noundef %97) #25
  br label %102

102:                                              ; preds = %100, %98
  %103 = phi ptr [ %99, %98 ], [ %101, %100 ]
  store ptr %103, ptr %.phi.trans.insert.i, align 8, !tbaa !34
  store i32 %94, ptr %3, align 8, !tbaa !33
  br label %Vec_IntPush.exit

Vec_IntPush.exit:                                 ; preds = %102, %Vec_IntGrow.exit.i43, %.Vec_IntGrow.exit10_crit_edge.i38, %70, %Vec_IntGrow.exit.i36, %.Vec_IntGrow.exit10_crit_edge.i31, %41, %Vec_IntGrow.exit.i, %.Vec_IntGrow.exit10_crit_edge.i
  %.sink53 = phi ptr [ %.pre.i, %.Vec_IntGrow.exit10_crit_edge.i ], [ %42, %41 ], [ %31, %Vec_IntGrow.exit.i ], [ %.pre.i33, %.Vec_IntGrow.exit10_crit_edge.i31 ], [ %71, %70 ], [ %60, %Vec_IntGrow.exit.i36 ], [ %.pre.i40, %.Vec_IntGrow.exit10_crit_edge.i38 ], [ %103, %102 ], [ %92, %Vec_IntGrow.exit.i43 ]
  %.sink = phi i32 [ 2, %.Vec_IntGrow.exit10_crit_edge.i ], [ 2, %41 ], [ 2, %Vec_IntGrow.exit.i ], [ 2, %.Vec_IntGrow.exit10_crit_edge.i31 ], [ 2, %70 ], [ 2, %Vec_IntGrow.exit.i36 ], [ %80, %.Vec_IntGrow.exit10_crit_edge.i38 ], [ %80, %102 ], [ %80, %Vec_IntGrow.exit.i43 ]
  %104 = load i32, ptr %5, align 4, !tbaa !3
  %105 = add nsw i32 %104, 1
  store i32 %105, ptr %5, align 4, !tbaa !3
  %106 = sext i32 %104 to i64
  %107 = getelementptr inbounds i32, ptr %.sink53, i64 %106
  store i32 %.sink, ptr %107, align 4, !tbaa !44
  %indvars.iv.next = add nuw nsw i64 %indvars.iv, 1
  %.val26 = load i32, ptr %7, align 8, !tbaa !73
  %.val27 = load ptr, ptr %8, align 8, !tbaa !74
  %108 = getelementptr i8, ptr %.val27, i64 4
  %.val27.val = load i32, ptr %108, align 4, !tbaa !3
  %109 = sub nsw i32 %.val27.val, %.val26
  %110 = sext i32 %109 to i64
  %111 = icmp slt i64 %indvars.iv.next, %110
  br i1 %111, label %14, label %.critedge, !llvm.loop !123

.critedge:                                        ; preds = %14, %Vec_IntPush.exit, %4
  ret ptr %3
}